target datalayout = "e-m:e-p270:32:32-p271:32:32-p272:64:64-i64:64-i128:128-f80:128-n8:16:32:64-S128"
target triple = "x86_64-unknown-linux-gnu"

%"class.pbrt::Primitive" = type { %"class.pbrt::TaggedPointer.9" }
%"class.pbrt::TaggedPointer.9" = type { i64 }
%"class.std::vector" = type { %"struct.std::_Vector_base" }
%"struct.std::_Vector_base" = type { %"struct.std::_Vector_base<pbrt::Light, std::allocator<pbrt::Light>>::_Vector_impl" }
%"struct.std::_Vector_base<pbrt::Light, std::allocator<pbrt::Light>>::_Vector_impl" = type { %"struct.std::_Vector_base<pbrt::Light, std::allocator<pbrt::Light>>::_Vector_impl_data" }
%"struct.std::_Vector_base<pbrt::Light, std::allocator<pbrt::Light>>::_Vector_impl_data" = type { ptr, ptr, ptr }
%"class.pbrt::Integrator" = type { ptr, %"class.pbrt::Primitive", %"class.std::vector", %"class.std::vector" }
%"class.pstd::optional.112" = type { %"union.std::aligned_storage<256, 8>::type", i8, [7 x i8] }
%"union.std::aligned_storage<256, 8>::type" = type { [256 x i8] }

@_ZN4pbrtL18nIntersectionTestsE = internal thread_local global i64 0, align 8

; Function Attrs: mustprogress nounwind uwtable
define linkonce_odr dso_local void @_ZN4pstd8optionalIN4pbrt17ShapeIntersectionEEC2Ev(ptr noundef nonnull align 8 dereferenceable(257) %this) unnamed_addr #2 comdat align 2 {
entry:
  %this.addr = alloca ptr, align 8
  store ptr %this, ptr %this.addr, align 8
  %this1 = load ptr, ptr %this.addr, align 8
  %set = getelementptr inbounds %"class.pstd::optional.112", ptr %this1, i32 0, i32 1
  store i8 0, ptr %set, align 8
  ret void
}

; Function Attrs: mustprogress nounwind uwtable
define linkonce_odr dso_local noundef zeroext i1 @_ZNK4pbrt13TaggedPointerIJNS_15SimplePrimitiveENS_18GeometricPrimitiveENS_20TransformedPrimitiveENS_17AnimatedPrimitiveENS_12BVHAggregateENS_15KdTreeAggregateEEEcvbEv(ptr noundef nonnull align 8 dereferenceable(8) %this) #2 comdat align 2 {
entry:
  %this.addr = alloca ptr, align 8
  store ptr %this, ptr %this.addr, align 8
  %this1 = load ptr, ptr %this.addr, align 8
  %bits = getelementptr inbounds %"class.pbrt::TaggedPointer.9", ptr %this1, i32 0, i32 0
  %0 = load i64, ptr %bits, align 8
  %and = and i64 %0, 144115188075855871
  %cmp = icmp ne i64 %and, 0
  ret i1 %cmp
}

; Function Attrs: mustprogress uwtable
define dso_local void @_ZNK4pbrt10Integrator9IntersectERKNS_3RayEf(ptr noalias sret(%"class.pstd::optional.112") align 8 %agg.result, ptr noundef nonnull align 8 dereferenceable(64) %this, ptr noundef nonnull align 8 dereferenceable(40) %ray, float noundef %tMax) #1 align 2 {
entry:
  %result.ptr = alloca ptr, align 8
  %this.addr = alloca ptr, align 8
  %ray.addr = alloca ptr, align 8
  %tMax.addr = alloca float, align 4
  store ptr %agg.result, ptr %result.ptr, align 8
  store ptr %this, ptr %this.addr, align 8
  store ptr %ray, ptr %ray.addr, align 8
  store float %tMax, ptr %tMax.addr, align 4
  %this1 = load ptr, ptr %this.addr, align 8
  %0 = call align 8 ptr @llvm.threadlocal.address.p0(ptr align 8 @_ZN4pbrtL18nIntersectionTestsE)
  %1 = load i64, ptr %0, align 8
  %inc = add nsw i64 %1, 1
  store i64 %inc, ptr %0, align 8
  br label %do.body

do.body:                                          ; preds = %entry
  br label %do.end

do.end:                                           ; preds = %do.body
  %aggregate = getelementptr inbounds %"class.pbrt::Integrator", ptr %this1, i32 0, i32 1
  %call = call noundef zeroext i1 @_ZNK4pbrt13TaggedPointerIJNS_15SimplePrimitiveENS_18GeometricPrimitiveENS_20TransformedPrimitiveENS_17AnimatedPrimitiveENS_12BVHAggregateENS_15KdTreeAggregateEEEcvbEv(ptr noundef nonnull align 8 dereferenceable(8) %aggregate)
  br i1 %call, label %if.then, label %if.else

if.then:                                          ; preds = %do.end
  %aggregate2 = getelementptr inbounds %"class.pbrt::Integrator", ptr %this1, i32 0, i32 1
  %2 = load ptr, ptr %ray.addr, align 8
  %3 = load float, ptr %tMax.addr, align 4
  call void @_ZNK4pbrt9Primitive9IntersectERKNS_3RayEf(ptr sret(%"class.pstd::optional.112") align 8 %agg.result, ptr noundef nonnull align 8 dereferenceable(8) %aggregate2, ptr noundef nonnull align 8 dereferenceable(40) %2, float noundef %3)
  br label %return

if.else:                                          ; preds = %do.end
  call void @llvm.memset.p0.i64(ptr align 8 %agg.result, i8 0, i64 264, i1 false)
  call void @_ZN4pstd8optionalIN4pbrt17ShapeIntersectionEEC2Ev(ptr noundef nonnull align 8 dereferenceable(257) %agg.result) #14
  br label %return

return:                                           ; preds = %if.else, %if.then
  ret void
}