; Function Attrs: mustprogress uwtable
define dso_local void @_ZNK4pbrt10Integrator9IntersectERKNS_3RayEf(ptr noalias sret(%"class.pstd::optional.112") align 8 %agg.result, ptr noundef nonnull align 8 dereferenceable(64) %this, ptr noundef nonnull align 8 dereferenceable(40) %ray, float noundef %tMax) local_unnamed_addr #1 align 2 {
entry:
  %0 = tail call align 8 ptr @llvm.threadlocal.address.p0(ptr align 8 @_ZN4pbrtL18nIntersectionTestsE)
  %1 = load i64, ptr %0, align 8
  %inc = add nsw i64 %1, 1
  store i64 %inc, ptr %0, align 8
  %aggregate = getelementptr inbounds i8, ptr %this, i64 8
  %2 = load i64, ptr %aggregate, align 8
  %and.i = and i64 %2, 144115188075855871
  %cmp.i.not = icmp eq i64 %and.i, 0
  br i1 %cmp.i.not, label %if.else, label %if.then

if.then:                                          ; preds = %entry
  tail call void @_ZNK4pbrt9Primitive9IntersectERKNS_3RayEf(ptr sret(%"class.pstd::optional.112") align 8 %agg.result, ptr noundef nonnull align 8 dereferenceable(8) %aggregate, ptr noundef nonnull align 8 dereferenceable(40) %ray, float noundef %tMax)
  br label %return

if.else:                                          ; preds = %entry
  tail call void @llvm.memset.p0.i64(ptr noundef nonnull align 8 dereferenceable(264) %agg.result, i8 0, i64 264, i1 false)
  br label %return

return:                                           ; preds = %if.else, %if.then
  ret void
}